target datalayout = "e-m:e-p270:32:32-p271:32:32-p272:64:64-i64:64-i128:128-f80:128-n8:16:32:64-S128"
target triple = "x86_64-pc-linux-gnu"

%struct.asn1_pctx_st = type { i64, i64, i64, i64, i64 }
%struct.ASN1_ITEM_st = type { i8, i64, ptr, i64, ptr, i64, ptr }
%struct.ASN1_TEMPLATE_st = type { i64, i64, i64, ptr, ptr }

@.str.1 = private unnamed_addr constant [4 x i8] c"SET\00", align 1
@.str.2 = private unnamed_addr constant [9 x i8] c"SEQUENCE\00", align 1
@.str.3 = private unnamed_addr constant [15 x i8] c"%*s%s OF %s {\0A\00", align 1
@.str.4 = private unnamed_addr constant [1 x i8] zeroinitializer, align 1
@.str.5 = private unnamed_addr constant [8 x i8] c"%*s%s:\0A\00", align 1
@.str.6 = private unnamed_addr constant [2 x i8] c"\0A\00", align 1
@.str.7 = private unnamed_addr constant [12 x i8] c"%*s<EMPTY>\0A\00", align 1
@.str.8 = private unnamed_addr constant [6 x i8] c"%*s}\0A\00", align 1

; Function Attrs: nounwind uwtable
define hidden i32 @asn1_template_print_ctx(ptr noundef %0, ptr noundef %1, i32 noundef %2, ptr noundef %3, ptr noundef %4) #0 {
  %6 = alloca i32, align 4
  %7 = alloca ptr, align 8
  %8 = alloca ptr, align 8
  %9 = alloca i32, align 4
  %10 = alloca ptr, align 8
  %11 = alloca ptr, align 8
  %12 = alloca i32, align 4
  %13 = alloca i64, align 8
  %14 = alloca ptr, align 8
  %15 = alloca ptr, align 8
  %16 = alloca ptr, align 8
  %17 = alloca ptr, align 8
  %18 = alloca ptr, align 8
  %19 = alloca i32, align 4
  store ptr %0, ptr %7, align 8, !tbaa !19
  store ptr %1, ptr %8, align 8, !tbaa !32
  store i32 %2, ptr %9, align 4, !tbaa !23
  store ptr %3, ptr %10, align 8, !tbaa !51
  store ptr %4, ptr %11, align 8, !tbaa !6
  call void @llvm.lifetime.start.p0(i64 4, ptr %12) #5
  call void @llvm.lifetime.start.p0(i64 8, ptr %13) #5
  call void @llvm.lifetime.start.p0(i64 8, ptr %14) #5
  call void @llvm.lifetime.start.p0(i64 8, ptr %15) #5
  %20 = load ptr, ptr %10, align 8, !tbaa !51
  %21 = getelementptr inbounds nuw %struct.ASN1_TEMPLATE_st, ptr %20, i32 0, i32 0
  %22 = load i64, ptr %21, align 8, !tbaa !54
  %23 = trunc i64 %22 to i32
  store i32 %23, ptr %12, align 4, !tbaa !23
  %24 = load ptr, ptr %11, align 8, !tbaa !6
  %25 = getelementptr inbounds nuw %struct.asn1_pctx_st, ptr %24, i32 0, i32 0
  %26 = load i64, ptr %25, align 8, !tbaa !11
  %27 = and i64 %26, 128
  %28 = icmp ne i64 %27, 0
  br i1 %28, label %29, label %35

29:                                               ; preds = %5
  %30 = load ptr, ptr %10, align 8, !tbaa !51
  %31 = getelementptr inbounds nuw %struct.ASN1_TEMPLATE_st, ptr %30, i32 0, i32 4
  %32 = load ptr, ptr %31, align 8, !tbaa !56
  %33 = getelementptr inbounds nuw %struct.ASN1_ITEM_st, ptr %32, i32 0, i32 6
  %34 = load ptr, ptr %33, align 8, !tbaa !29
  store ptr %34, ptr %14, align 8, !tbaa !27
  br label %36

35:                                               ; preds = %5
  store ptr null, ptr %14, align 8, !tbaa !27
  br label %36

36:                                               ; preds = %35, %29
  %37 = load ptr, ptr %11, align 8, !tbaa !6
  %38 = getelementptr inbounds nuw %struct.asn1_pctx_st, ptr %37, i32 0, i32 0
  %39 = load i64, ptr %38, align 8, !tbaa !11
  %40 = and i64 %39, 64
  %41 = icmp ne i64 %40, 0
  br i1 %41, label %42, label %43

42:                                               ; preds = %36
  store ptr null, ptr %15, align 8, !tbaa !27
  br label %47

43:                                               ; preds = %36
  %44 = load ptr, ptr %10, align 8, !tbaa !51
  %45 = getelementptr inbounds nuw %struct.ASN1_TEMPLATE_st, ptr %44, i32 0, i32 3
  %46 = load ptr, ptr %45, align 8, !tbaa !57
  store ptr %46, ptr %15, align 8, !tbaa !27
  br label %47

47:                                               ; preds = %43, %42
  %48 = load i32, ptr %12, align 4, !tbaa !23
  %49 = and i32 %48, 6
  %50 = icmp ne i32 %49, 0
  br i1 %50, label %51, label %145

51:                                               ; preds = %47
  call void @llvm.lifetime.start.p0(i64 8, ptr %16) #5
  call void @llvm.lifetime.start.p0(i64 8, ptr %17) #5
  call void @llvm.lifetime.start.p0(i64 8, ptr %18) #5
  %52 = load ptr, ptr %15, align 8, !tbaa !27
  %53 = icmp ne ptr %52, null
  br i1 %53, label %54, label %86

54:                                               ; preds = %51
  %55 = load ptr, ptr %11, align 8, !tbaa !6
  %56 = getelementptr inbounds nuw %struct.asn1_pctx_st, ptr %55, i32 0, i32 0
  %57 = load i64, ptr %56, align 8, !tbaa !11
  %58 = and i64 %57, 4
  %59 = icmp ne i64 %58, 0
  br i1 %59, label %60, label %77

60:                                               ; preds = %54
  %61 = load i32, ptr %12, align 4, !tbaa !23
  %62 = and i32 %61, 2
  %63 = icmp ne i32 %62, 0
  br i1 %63, label %64, label %65

64:                                               ; preds = %60
  store ptr @.str.1, ptr %16, align 8, !tbaa !27
  br label %66

65:                                               ; preds = %60
  store ptr @.str.2, ptr %16, align 8, !tbaa !27
  br label %66

66:                                               ; preds = %65, %64
  %67 = load ptr, ptr %7, align 8, !tbaa !19
  %68 = load i32, ptr %9, align 4, !tbaa !23
  %69 = load ptr, ptr %16, align 8, !tbaa !27
  %70 = load ptr, ptr %10, align 8, !tbaa !51
  %71 = getelementptr inbounds nuw %struct.ASN1_TEMPLATE_st, ptr %70, i32 0, i32 3
  %72 = load ptr, ptr %71, align 8, !tbaa !57
  %73 = call i32 (ptr, ptr, ...) @BIO_printf(ptr noundef %67, ptr noundef @.str.3, i32 noundef %68, ptr noundef @.str.4, ptr noundef %69, ptr noundef %72)
  %74 = icmp sle i32 %73, 0
  br i1 %74, label %75, label %76

75:                                               ; preds = %66
  store i32 0, ptr %6, align 4
  store i32 1, ptr %19, align 4
  br label %144

76:                                               ; preds = %66
  br label %85

77:                                               ; preds = %54
  %78 = load ptr, ptr %7, align 8, !tbaa !19
  %79 = load i32, ptr %9, align 4, !tbaa !23
  %80 = load ptr, ptr %15, align 8, !tbaa !27
  %81 = call i32 (ptr, ptr, ...) @BIO_printf(ptr noundef %78, ptr noundef @.str.5, i32 noundef %79, ptr noundef @.str.4, ptr noundef %80)
  %82 = icmp sle i32 %81, 0
  br i1 %82, label %83, label %84

83:                                               ; preds = %77
  store i32 0, ptr %6, align 4
  store i32 1, ptr %19, align 4
  br label %144

84:                                               ; preds = %77
  br label %85

85:                                               ; preds = %84, %76
  br label %86

86:                                               ; preds = %85, %51
  %87 = load ptr, ptr %8, align 8, !tbaa !32
  %88 = load ptr, ptr %87, align 8, !tbaa !21
  store ptr %88, ptr %18, align 8, !tbaa !58
  store i64 0, ptr %13, align 8, !tbaa !18
  br label %89

89:                                               ; preds = %117, %86
  %90 = load i64, ptr %13, align 8, !tbaa !18
  %91 = load ptr, ptr %18, align 8, !tbaa !58
  %92 = call i64 @sk_num(ptr noundef %91)
  %93 = icmp ult i64 %90, %92
  br i1 %93, label %94, label %120

94:                                               ; preds = %89
  %95 = load i64, ptr %13, align 8, !tbaa !18
  %96 = icmp ugt i64 %95, 0
  br i1 %96, label %97, label %102

97:                                               ; preds = %94
  %98 = load ptr, ptr %7, align 8, !tbaa !19
  %99 = call i32 @BIO_puts(ptr noundef %98, ptr noundef @.str.6)
  %100 = icmp sle i32 %99, 0
  br i1 %100, label %101, label %102

101:                                              ; preds = %97
  store i32 0, ptr %6, align 4
  store i32 1, ptr %19, align 4
  br label %144

102:                                              ; preds = %97, %94
  %103 = load ptr, ptr %18, align 8, !tbaa !58
  %104 = load i64, ptr %13, align 8, !tbaa !18
  %105 = call ptr @sk_value(ptr noundef %103, i64 noundef %104)
  store ptr %105, ptr %17, align 8, !tbaa !21
  %106 = load ptr, ptr %7, align 8, !tbaa !19
  %107 = load i32, ptr %9, align 4, !tbaa !23
  %108 = add nsw i32 %107, 2
  %109 = load ptr, ptr %10, align 8, !tbaa !51
  %110 = getelementptr inbounds nuw %struct.ASN1_TEMPLATE_st, ptr %109, i32 0, i32 4
  %111 = load ptr, ptr %110, align 8, !tbaa !56
  %112 = load ptr, ptr %11, align 8, !tbaa !6
  %113 = call i32 @asn1_item_print_ctx(ptr noundef %106, ptr noundef %17, i32 noundef %108, ptr noundef %111, ptr noundef null, ptr noundef null, i32 noundef 1, ptr noundef %112)
  %114 = icmp ne i32 %113, 0
  br i1 %114, label %116, label %115

115:                                              ; preds = %102
  store i32 0, ptr %6, align 4
  store i32 1, ptr %19, align 4
  br label %144

116:                                              ; preds = %102
  br label %117

117:                                              ; preds = %116
  %118 = load i64, ptr %13, align 8, !tbaa !18
  %119 = add i64 %118, 1
  store i64 %119, ptr %13, align 8, !tbaa !18
  br label %89, !llvm.loop !60

120:                                              ; preds = %89
  %121 = load i64, ptr %13, align 8, !tbaa !18
  %122 = icmp ne i64 %121, 0
  br i1 %122, label %130, label %123

123:                                              ; preds = %120
  %124 = load ptr, ptr %7, align 8, !tbaa !19
  %125 = load i32, ptr %9, align 4, !tbaa !23
  %126 = add nsw i32 %125, 2
  %127 = call i32 (ptr, ptr, ...) @BIO_printf(ptr noundef %124, ptr noundef @.str.7, i32 noundef %126, ptr noundef @.str.4)
  %128 = icmp sle i32 %127, 0
  br i1 %128, label %129, label %130

129:                                              ; preds = %123
  store i32 0, ptr %6, align 4
  store i32 1, ptr %19, align 4
  br label %144

130:                                              ; preds = %123, %120
  %131 = load ptr, ptr %11, align 8, !tbaa !6
  %132 = getelementptr inbounds nuw %struct.asn1_pctx_st, ptr %131, i32 0, i32 0
  %133 = load i64, ptr %132, align 8, !tbaa !11
  %134 = and i64 %133, 2
  %135 = icmp ne i64 %134, 0
  br i1 %135, label %136, label %143

136:                                              ; preds = %130
  %137 = load ptr, ptr %7, align 8, !tbaa !19
  %138 = load i32, ptr %9, align 4, !tbaa !23
  %139 = call i32 (ptr, ptr, ...) @BIO_printf(ptr noundef %137, ptr noundef @.str.8, i32 noundef %138, ptr noundef @.str.4)
  %140 = icmp sle i32 %139, 0
  br i1 %140, label %141, label %142

141:                                              ; preds = %136
  store i32 0, ptr %6, align 4
  store i32 1, ptr %19, align 4
  br label %144

142:                                              ; preds = %136
  br label %143

143:                                              ; preds = %142, %130
  store i32 1, ptr %6, align 4
  store i32 1, ptr %19, align 4
  br label %144

144:                                              ; preds = %143, %141, %129, %115, %101, %83, %75
  call void @llvm.lifetime.end.p0(i64 8, ptr %18) #5
  call void @llvm.lifetime.end.p0(i64 8, ptr %17) #5
  call void @llvm.lifetime.end.p0(i64 8, ptr %16) #5
  br label %156

145:                                              ; preds = %47
  %146 = load ptr, ptr %7, align 8, !tbaa !19
  %147 = load ptr, ptr %8, align 8, !tbaa !32
  %148 = load i32, ptr %9, align 4, !tbaa !23
  %149 = load ptr, ptr %10, align 8, !tbaa !51
  %150 = getelementptr inbounds nuw %struct.ASN1_TEMPLATE_st, ptr %149, i32 0, i32 4
  %151 = load ptr, ptr %150, align 8, !tbaa !56
  %152 = load ptr, ptr %15, align 8, !tbaa !27
  %153 = load ptr, ptr %14, align 8, !tbaa !27
  %154 = load ptr, ptr %11, align 8, !tbaa !6
  %155 = call i32 @asn1_item_print_ctx(ptr noundef %146, ptr noundef %147, i32 noundef %148, ptr noundef %151, ptr noundef %152, ptr noundef %153, i32 noundef 0, ptr noundef %154)
  store i32 %155, ptr %6, align 4
  store i32 1, ptr %19, align 4
  br label %156

156:                                              ; preds = %145, %144
  call void @llvm.lifetime.end.p0(i64 8, ptr %15) #5
  call void @llvm.lifetime.end.p0(i64 8, ptr %14) #5
  call void @llvm.lifetime.end.p0(i64 8, ptr %13) #5
  call void @llvm.lifetime.end.p0(i64 4, ptr %12) #5
  %157 = load i32, ptr %6, align 4
  ret i32 %157
}