; Function Attrs: nounwind uwtable
define hidden range(i32 0, 2) i32 @asn1_template_print_ctx(ptr noundef %0, ptr noundef %1, i32 noundef %2, ptr noundef readonly captures(none) %3, ptr noundef %4) local_unnamed_addr #0 {
  %6 = alloca ptr, align 8
  %7 = load i64, ptr %3, align 8, !tbaa !50
  %8 = trunc i64 %7 to i32
  %9 = load i64, ptr %4, align 8, !tbaa !6
  %10 = and i64 %9, 128
  %.not = icmp eq i64 %10, 0
  br i1 %.not, label %16, label %11

11:                                               ; preds = %5
  %12 = getelementptr inbounds nuw i8, ptr %3, i64 32
  %13 = load ptr, ptr %12, align 8, !tbaa !53
  %14 = getelementptr inbounds nuw i8, ptr %13, i64 48
  %15 = load ptr, ptr %14, align 8, !tbaa !18
  br label %16

16:                                               ; preds = %5, %11
  %.043 = phi ptr [ %15, %11 ], [ null, %5 ]
  %17 = and i64 %9, 64
  %.not45 = icmp eq i64 %17, 0
  br i1 %.not45, label %18, label %.thread

18:                                               ; preds = %16
  %19 = getelementptr inbounds nuw i8, ptr %3, i64 24
  %20 = load ptr, ptr %19, align 8, !tbaa !54
  %21 = and i32 %8, 6
  %.not46 = icmp eq i32 %21, 0
  br i1 %.not46, label %58, label %23

.thread:                                          ; preds = %16
  %22 = and i32 %8, 6
  %.not4655 = icmp eq i32 %22, 0
  br i1 %.not4655, label %58, label %.thread58

.thread58:                                        ; preds = %.thread
  call void @llvm.lifetime.start.p0(i64 8, ptr nonnull %6) #8
  br label %33

23:                                               ; preds = %18
  call void @llvm.lifetime.start.p0(i64 8, ptr nonnull %6) #8
  %.not47 = icmp eq ptr %20, null
  br i1 %.not47, label %33, label %24

24:                                               ; preds = %23
  %25 = and i64 %9, 4
  %.not48 = icmp eq i64 %25, 0
  br i1 %.not48, label %30, label %26

26:                                               ; preds = %24
  %27 = and i32 %8, 2
  %.not49 = icmp eq i32 %27, 0
  %.str.2..str.1 = select i1 %.not49, ptr @.str.2, ptr @.str.1
  %28 = tail call i32 (ptr, ptr, ...) @BIO_printf(ptr noundef %0, ptr noundef nonnull @.str.3, i32 noundef %2, ptr noundef nonnull @.str.4, ptr noundef nonnull %.str.2..str.1, ptr noundef nonnull %20) #8
  %29 = icmp slt i32 %28, 1
  br i1 %29, label %.loopexit, label %33

30:                                               ; preds = %24
  %31 = tail call i32 (ptr, ptr, ...) @BIO_printf(ptr noundef %0, ptr noundef nonnull @.str.5, i32 noundef %2, ptr noundef nonnull @.str.4, ptr noundef nonnull %20) #8
  %32 = icmp slt i32 %31, 1
  br i1 %32, label %.loopexit, label %33

33:                                               ; preds = %.thread58, %26, %30, %23
  %34 = load ptr, ptr %1, align 8, !tbaa !15
  %35 = tail call i64 @sk_num(ptr noundef %34) #8
  %.not63 = icmp eq i64 %35, 0
  %36 = add nsw i32 %2, 2
  br i1 %.not63, label %._crit_edge.thread, label %.lr.ph

.lr.ph:                                           ; preds = %33
  %37 = getelementptr inbounds nuw i8, ptr %3, i64 32
  br label %38

38:                                               ; preds = %.lr.ph, %46
  %.04462 = phi i64 [ 0, %.lr.ph ], [ %47, %46 ]
  %.not52 = icmp eq i64 %.04462, 0
  br i1 %.not52, label %42, label %39

39:                                               ; preds = %38
  %40 = call i32 @BIO_puts(ptr noundef %0, ptr noundef nonnull @.str.6) #8
  %41 = icmp slt i32 %40, 1
  br i1 %41, label %.loopexit, label %42

42:                                               ; preds = %39, %38
  %43 = call ptr @sk_value(ptr noundef %34, i64 noundef %.04462) #8
  store ptr %43, ptr %6, align 8, !tbaa !15
  %44 = load ptr, ptr %37, align 8, !tbaa !53
  %45 = call fastcc i32 @asn1_item_print_ctx(ptr noundef %0, ptr noundef nonnull %6, i32 noundef %36, ptr noundef %44, ptr noundef null, ptr noundef null, i32 noundef 1, ptr noundef nonnull %4)
  %.not53 = icmp eq i32 %45, 0
  br i1 %.not53, label %.loopexit, label %46

46:                                               ; preds = %42
  %47 = add nuw i64 %.04462, 1
  %48 = call i64 @sk_num(ptr noundef %34) #8
  %49 = icmp ult i64 %47, %48
  br i1 %49, label %38, label %._crit_edge, !llvm.loop !55

._crit_edge.thread:                               ; preds = %33
  %50 = tail call i32 (ptr, ptr, ...) @BIO_printf(ptr noundef %0, ptr noundef nonnull @.str.7, i32 noundef %36, ptr noundef nonnull @.str.4) #8
  %51 = icmp slt i32 %50, 1
  br i1 %51, label %.loopexit, label %._crit_edge

._crit_edge:                                      ; preds = %46, %._crit_edge.thread
  %52 = load i64, ptr %4, align 8, !tbaa !6
  %53 = and i64 %52, 2
  %.not51 = icmp eq i64 %53, 0
  br i1 %.not51, label %57, label %54

54:                                               ; preds = %._crit_edge
  %55 = call i32 (ptr, ptr, ...) @BIO_printf(ptr noundef %0, ptr noundef nonnull @.str.8, i32 noundef %2, ptr noundef nonnull @.str.4) #8
  %56 = icmp slt i32 %55, 1
  br i1 %56, label %.loopexit, label %57

57:                                               ; preds = %54, %._crit_edge
  br label %.loopexit

.loopexit:                                        ; preds = %42, %39, %54, %._crit_edge.thread, %30, %26, %57
  %.0 = phi i32 [ 1, %57 ], [ 0, %26 ], [ 0, %30 ], [ 0, %._crit_edge.thread ], [ 0, %54 ], [ 0, %39 ], [ 0, %42 ]
  call void @llvm.lifetime.end.p0(i64 8, ptr nonnull %6) #8
  br label %62

58:                                               ; preds = %.thread, %18
  %.04257 = phi ptr [ null, %.thread ], [ %20, %18 ]
  %59 = getelementptr inbounds nuw i8, ptr %3, i64 32
  %60 = load ptr, ptr %59, align 8, !tbaa !53
  %61 = tail call fastcc i32 @asn1_item_print_ctx(ptr noundef %0, ptr noundef %1, i32 noundef %2, ptr noundef %60, ptr noundef %.04257, ptr noundef %.043, i32 noundef 0, ptr noundef nonnull %4)
  br label %62

62:                                               ; preds = %58, %.loopexit
  %.1 = phi i32 [ %.0, %.loopexit ], [ %61, %58 ]
  ret i32 %.1
}